; Function Attrs: null_pointer_is_valid sspstrong uwtable
define internal i32 @dissect_dmx_text(ptr noundef %0, ptr noundef readonly captures(none) %1, ptr noundef %2, ptr readnone captures(none) %3) #0 {
  %5 = getelementptr inbounds nuw i8, ptr %1, i64 8
  %6 = load ptr, ptr %5, align 8
  tail call void @col_set_str(ptr noundef %6, i32 noundef 35, ptr noundef nonnull @.str.108)
  %7 = load ptr, ptr %5, align 8
  tail call void @col_clear(ptr noundef %7, i32 noundef 25)
  %.not = icmp eq ptr %2, null
  br i1 %.not, label %20, label %8

8:                                                ; preds = %4
  %9 = load i32, ptr @proto_dmx_text, align 4
  %10 = tail call ptr @proto_tree_add_item(ptr noundef nonnull %2, i32 noundef %9, ptr noundef %0, i32 noundef 0, i32 noundef -1, i32 noundef 0)
  %11 = load i32, ptr @ett_dmx_text, align 4
  %12 = tail call ptr @proto_item_add_subtree(ptr noundef %10, i32 noundef %11)
  %13 = load i32, ptr @hf_dmx_text_page_nr, align 4
  %14 = tail call ptr @proto_tree_add_item(ptr noundef %12, i32 noundef %13, ptr noundef %0, i32 noundef 0, i32 noundef 1, i32 noundef 0)
  %15 = load i32, ptr @hf_dmx_text_line_len, align 4
  %16 = tail call ptr @proto_tree_add_item(ptr noundef %12, i32 noundef %15, ptr noundef %0, i32 noundef 1, i32 noundef 1, i32 noundef 0)
  %17 = tail call i32 @tvb_reported_length_remaining(ptr noundef %0, i32 noundef 2)
  %18 = load i32, ptr @hf_dmx_text_string, align 4
  %19 = tail call ptr @proto_tree_add_item(ptr noundef %12, i32 noundef %18, ptr noundef %0, i32 noundef 2, i32 noundef %17, i32 noundef 0)
  br label %20

20:                                               ; preds = %8, %4
  %21 = tail call i32 @tvb_captured_length(ptr noundef %0)
  ret i32 %21
}